; Function Attrs: nounwind uwtable
define range(i32 -1, 1) i32 @H5T_lock(ptr nocapture noundef readonly %0, i1 noundef zeroext %1) local_unnamed_addr #0 {
  %3 = getelementptr inbounds i8, ptr %0, i64 40
  %4 = load ptr, ptr %3, align 8
  %5 = getelementptr inbounds i8, ptr %4, i64 8
  %6 = load i32, ptr %5, align 8
  switch i32 %6, label %11 [
    i32 0, label %7
    i32 1, label %9
    i32 2, label %15
    i32 3, label %15
    i32 4, label %15
  ]

7:                                                ; preds = %2
  %8 = select i1 %1, i32 2, i32 1
  store i32 %8, ptr %5, align 8
  br label %15

9:                                                ; preds = %2
  br i1 %1, label %10, label %15

10:                                               ; preds = %9
  store i32 2, ptr %5, align 8
  br label %15

11:                                               ; preds = %2
  %12 = load i64, ptr @H5E_DATATYPE_g, align 8
  %13 = load i64, ptr @H5E_BADTYPE_g, align 8
  %14 = tail call i32 (ptr, ptr, i32, i64, i64, ptr, ...) @H5E_printf_stack(ptr noundef nonnull @.str.2, ptr noundef nonnull @__func__.H5T_lock, i32 noundef 3997, i64 noundef %12, i64 noundef %13, ptr noundef nonnull @.str.305) #17
  br label %15

15:                                               ; preds = %7, %10, %9, %2, %2, %2, %11
  %.0 = phi i32 [ -1, %11 ], [ 0, %2 ], [ 0, %2 ], [ 0, %2 ], [ 0, %10 ], [ 0, %9 ], [ 0, %7 ]
  ret i32 %.0
}